; Function Attrs: nounwind uwtable
define i32 @exr_start_temporary_context(ptr noundef writeonly %0, ptr noundef %1, ptr noundef readonly %2) local_unnamed_addr #0 {
  %4 = alloca ptr, align 8
  %5 = alloca %struct._exr_context_initializer_v3, align 8
  call void @llvm.lifetime.start.p0(i64 8, ptr nonnull %4) #13
  store ptr null, ptr %4, align 8, !tbaa !3
  call void @llvm.lifetime.start.p0(i64 104, ptr nonnull %5) #13
  tail call void @llvm.experimental.noalias.scope.decl(metadata !71)
  %6 = getelementptr inbounds nuw i8, ptr %5, i64 8
  call void @llvm.memset.p0.i64(ptr noundef nonnull align 8 dereferenceable(96) %6, i8 0, i64 96, i1 false), !alias.scope !71
  store i64 104, ptr %5, align 8, !alias.scope !71
  %7 = getelementptr inbounds nuw i8, ptr %5, i64 88
  store i32 -2, ptr %7, align 8, !alias.scope !71
  %8 = getelementptr inbounds nuw i8, ptr %5, i64 92
  store float -1.000000e+00, ptr %8, align 4, !alias.scope !71
  %.not.i = icmp eq ptr %2, null
  br i1 %.not.i, label %fill_context_data.exit, label %9

9:                                                ; preds = %3
  %10 = getelementptr inbounds nuw i8, ptr %2, i64 8
  %11 = load ptr, ptr %10, align 8, !tbaa !11, !noalias !71
  store ptr %11, ptr %6, align 8, !tbaa !11, !alias.scope !71
  %12 = getelementptr inbounds nuw i8, ptr %2, i64 16
  %13 = load ptr, ptr %12, align 8, !tbaa !16, !noalias !71
  %14 = getelementptr inbounds nuw i8, ptr %5, i64 16
  store ptr %13, ptr %14, align 8, !tbaa !16, !alias.scope !71
  %15 = getelementptr inbounds nuw i8, ptr %2, i64 24
  %16 = load ptr, ptr %15, align 8, !tbaa !17, !noalias !71
  %17 = getelementptr inbounds nuw i8, ptr %5, i64 24
  store ptr %16, ptr %17, align 8, !tbaa !17, !alias.scope !71
  %18 = getelementptr inbounds nuw i8, ptr %2, i64 32
  %19 = load ptr, ptr %18, align 8, !tbaa !18, !noalias !71
  %20 = getelementptr inbounds nuw i8, ptr %5, i64 32
  store ptr %19, ptr %20, align 8, !tbaa !18, !alias.scope !71
  %21 = getelementptr inbounds nuw i8, ptr %2, i64 40
  %22 = load ptr, ptr %21, align 8, !tbaa !19, !noalias !71
  %23 = getelementptr inbounds nuw i8, ptr %5, i64 40
  store ptr %22, ptr %23, align 8, !tbaa !19, !alias.scope !71
  %24 = getelementptr inbounds nuw i8, ptr %2, i64 48
  %25 = load ptr, ptr %24, align 8, !tbaa !20, !noalias !71
  %26 = getelementptr inbounds nuw i8, ptr %5, i64 48
  store ptr %25, ptr %26, align 8, !tbaa !20, !alias.scope !71
  %27 = getelementptr inbounds nuw i8, ptr %2, i64 56
  %28 = load ptr, ptr %27, align 8, !tbaa !21, !noalias !71
  %29 = getelementptr inbounds nuw i8, ptr %5, i64 56
  store ptr %28, ptr %29, align 8, !tbaa !21, !alias.scope !71
  %30 = getelementptr inbounds nuw i8, ptr %2, i64 64
  %31 = load ptr, ptr %30, align 8, !tbaa !22, !noalias !71
  %32 = getelementptr inbounds nuw i8, ptr %5, i64 64
  store ptr %31, ptr %32, align 8, !tbaa !22, !alias.scope !71
  %33 = getelementptr inbounds nuw i8, ptr %2, i64 72
  %34 = load i32, ptr %33, align 8, !tbaa !23, !noalias !71
  %35 = getelementptr inbounds nuw i8, ptr %5, i64 72
  store i32 %34, ptr %35, align 8, !tbaa !23, !alias.scope !71
  %36 = getelementptr inbounds nuw i8, ptr %2, i64 76
  %37 = load i32, ptr %36, align 4, !tbaa !24, !noalias !71
  %38 = getelementptr inbounds nuw i8, ptr %5, i64 76
  store i32 %37, ptr %38, align 4, !tbaa !24, !alias.scope !71
  %39 = getelementptr inbounds nuw i8, ptr %2, i64 80
  %40 = load i32, ptr %39, align 8, !tbaa !25, !noalias !71
  %41 = getelementptr inbounds nuw i8, ptr %5, i64 80
  store i32 %40, ptr %41, align 8, !tbaa !25, !alias.scope !71
  %42 = getelementptr inbounds nuw i8, ptr %2, i64 84
  %43 = load i32, ptr %42, align 4, !tbaa !26, !noalias !71
  %44 = getelementptr inbounds nuw i8, ptr %5, i64 84
  store i32 %43, ptr %44, align 4, !tbaa !26, !alias.scope !71
  %45 = load i64, ptr %2, align 8, !tbaa !27, !noalias !71
  %46 = icmp ugt i64 %45, 95
  br i1 %46, label %47, label %fill_context_data.exit

47:                                               ; preds = %9
  %48 = getelementptr inbounds nuw i8, ptr %2, i64 88
  %49 = load i32, ptr %48, align 8, !tbaa !28, !noalias !71
  store i32 %49, ptr %7, align 8, !tbaa !28, !alias.scope !71
  %50 = getelementptr inbounds nuw i8, ptr %2, i64 92
  %51 = load float, ptr %50, align 4, !tbaa !29, !noalias !71
  store float %51, ptr %8, align 4, !tbaa !29, !alias.scope !71
  %52 = icmp ugt i64 %45, 103
  br i1 %52, label %53, label %fill_context_data.exit

53:                                               ; preds = %47
  %54 = getelementptr inbounds nuw i8, ptr %2, i64 96
  %55 = load i32, ptr %54, align 8, !tbaa !30, !noalias !71
  %56 = getelementptr inbounds nuw i8, ptr %5, i64 96
  store i32 %55, ptr %56, align 8, !tbaa !30, !alias.scope !71
  br label %fill_context_data.exit

fill_context_data.exit:                           ; preds = %3, %9, %47, %53
  call void @internal_exr_update_default_handlers(ptr noundef nonnull align 8 %5) #13
  %.not = icmp eq ptr %0, null
  br i1 %.not, label %69, label %57

57:                                               ; preds = %fill_context_data.exit
  %58 = call i32 @internal_exr_alloc_context(ptr noundef nonnull %4, ptr noundef nonnull %5, i32 noundef 4, i64 noundef 0) #13
  %59 = icmp eq i32 %58, 0
  br i1 %59, label %60, label %67

60:                                               ; preds = %57
  %61 = load ptr, ptr %4, align 8, !tbaa !3
  %62 = getelementptr inbounds nuw i8, ptr %61, i64 8
  %.not12 = icmp eq ptr %1, null
  %63 = select i1 %.not12, ptr @.str.4, ptr %1
  %64 = call i32 @exr_attr_string_create(ptr noundef %61, ptr noundef nonnull %62, ptr noundef nonnull %63) #13
  %.not13 = icmp eq i32 %64, 0
  br i1 %.not13, label %67, label %65

65:                                               ; preds = %60
  %66 = call i32 @exr_finish(ptr noundef nonnull %4)
  br label %67

67:                                               ; preds = %60, %65, %57
  %.0 = phi i32 [ %64, %65 ], [ 0, %60 ], [ %58, %57 ]
  %68 = load ptr, ptr %4, align 8, !tbaa !3
  store ptr %68, ptr %0, align 8, !tbaa !3
  br label %69

69:                                               ; preds = %fill_context_data.exit, %67
  %.08 = phi i32 [ %.0, %67 ], [ 3, %fill_context_data.exit ]
  call void @llvm.lifetime.end.p0(i64 104, ptr nonnull %5) #13
  call void @llvm.lifetime.end.p0(i64 8, ptr nonnull %4) #13
  ret i32 %.08
}